(i__main__
ConfigFile
p0
(dp1
S'amp_avg'
p2
I01
sS'deg_avg'
p3
I00
sS'dur_avg'
p4
I00
sS'instruments'
p5
(lp6
S'piano'
p7
aS'violin'
p8
aS'bass'
p9
asS'amp_range'
p10
(S'1'
p11
S'4'
p12
tp13
sS'dur_range'
p14
(S'0.3'
p15
S'0.5'
p16
tp17
sS'deg_range'
p18
(S'0'
p19
S'7'
p20
tp21
sS'neigh_scale'
p22
I2
sb.