(i__main__
ConfigFile
p0
(dp1
S'amp_range'
p2
(S'1'
p3
S'2'
p4
tp5
sS'dur_range'
p6
(S'5'
p7
S'6'
p8
tp9
sS'deg_range'
p10
(S'3'
p11
S'4'
p12
tp13
sS'dur_neigh_scale'
p14
I22
sS'instruments'
p15
(lp16
sb.