(i__main__
ConfigFile
p0
(dp1
S'amp_avg'
p2
I00
sS'deg_avg'
p3
I01
sS'dur_avg'
p4
I01
sS'instruments'
p5
(lp6
S'piano'
p7
aS'violin'
p8
aS'bass'
p9
asS'amp_range'
p10
(S'0.4'
p11
S'3'
p12
tp13
sS'dur_range'
p14
(S'0.2'
p15
S'0.8'
p16
tp17
sS'deg_range'
p18
(S'0'
p19
S'7'
p20
tp21
sS'neigh_scale'
p22
I1
sb.